target datalayout = "e-m:e-p270:32:32-p271:32:32-p272:64:64-i64:64-i128:128-f80:128-n8:16:32:64-S128"
target triple = "x86_64-pc-linux-gnu"

%class.anon.119 = type { i8 }

@_ZN4pbrtL15nBilinearMeshesE = internal thread_local global i64 0, align 8
@_ZN4pbrtL5nBlpsE = internal thread_local global i64 0, align 8
@.str.75 = private unnamed_addr constant [35 x i8] c"Geometry/Bilinear patches per mesh\00", align 1

; Function Attrs: inlinehint mustprogress uwtable
define internal void @"_ZNK4pbrt3$_4clERNS_16StatsAccumulatorE"(ptr noundef nonnull align 1 dereferenceable(1) %0, ptr noundef nonnull align 8 dereferenceable(8) %1) #11 align 2 {
  %3 = alloca ptr, align 8
  %4 = alloca ptr, align 8
  store ptr %0, ptr %3, align 8, !tbaa !4
  store ptr %1, ptr %4, align 8, !tbaa !208
  %5 = load ptr, ptr %4, align 8, !tbaa !208
  %6 = call align 8 ptr @llvm.threadlocal.address.p0(ptr align 8 @_ZN4pbrtL5nBlpsE)
  %7 = load i64, ptr %6, align 8, !tbaa !45
  %8 = call align 8 ptr @llvm.threadlocal.address.p0(ptr align 8 @_ZN4pbrtL15nBilinearMeshesE)
  %9 = load i64, ptr %8, align 8, !tbaa !45
  call void @_ZN4pbrt16StatsAccumulator11ReportRatioEPKcll(ptr noundef nonnull align 8 dereferenceable(8) %5, ptr noundef @.str.75, i64 noundef %7, i64 noundef %9)
  %10 = call align 8 ptr @llvm.threadlocal.address.p0(ptr align 8 @_ZN4pbrtL5nBlpsE)
  store i64 0, ptr %10, align 8, !tbaa !45
  %11 = call align 8 ptr @llvm.threadlocal.address.p0(ptr align 8 @_ZN4pbrtL15nBilinearMeshesE)
  store i64 0, ptr %11, align 8, !tbaa !45
  ret void
}

; Function Attrs: inlinehint mustprogress uwtable
define internal void @"_ZN4pbrt3$_48__invokeERNS_16StatsAccumulatorE"(ptr noundef nonnull align 8 dereferenceable(8) %0) #11 align 2 {
  %2 = alloca ptr, align 8
  %3 = alloca %class.anon.119, align 1
  store ptr %0, ptr %2, align 8, !tbaa !208
  %4 = load ptr, ptr %2, align 8
  call void @"_ZNK4pbrt3$_4clERNS_16StatsAccumulatorE"(ptr noundef nonnull align 1 dereferenceable(1) %3, ptr noundef nonnull align 8 dereferenceable(8) %4)
  ret void
}