; Function Attrs: inlinehint mustprogress uwtable
define internal void @"_ZN4pbrt3$_48__invokeERNS_16StatsAccumulatorE"(ptr noundef nonnull align 8 dereferenceable(8) %0) #9 align 2 {
  %2 = tail call align 8 ptr @llvm.threadlocal.address.p0(ptr align 8 @_ZN4pbrtL5nBlpsE)
  %3 = load i64, ptr %2, align 8, !tbaa !23
  %4 = tail call align 8 ptr @llvm.threadlocal.address.p0(ptr align 8 @_ZN4pbrtL15nBilinearMeshesE)
  %5 = load i64, ptr %4, align 8, !tbaa !23
  tail call void @_ZN4pbrt16StatsAccumulator11ReportRatioEPKcll(ptr noundef nonnull align 8 dereferenceable(8) %0, ptr noundef nonnull @.str.75, i64 noundef %3, i64 noundef %5)
  store i64 0, ptr %2, align 8, !tbaa !23
  store i64 0, ptr %4, align 8, !tbaa !23
  ret void
}